target datalayout = "e-m:e-p270:32:32-p271:32:32-p272:64:64-i64:64-i128:128-f80:128-n8:16:32:64-S128"
target triple = "x86_64-pc-linux-gnu"

%struct.SDL_GPUDevice = type { ptr, ptr, ptr, ptr, ptr, ptr, ptr, ptr, ptr, ptr, ptr, ptr, ptr, ptr, ptr, ptr, ptr, ptr, ptr, ptr, ptr, ptr, ptr, ptr, ptr, ptr, ptr, ptr, ptr, ptr, ptr, ptr, ptr, ptr, ptr, ptr, ptr, ptr, ptr, ptr, ptr, ptr, ptr, ptr, ptr, ptr, ptr, ptr, ptr, ptr, ptr, ptr, ptr, ptr, ptr, ptr, ptr, ptr, ptr, ptr, ptr, ptr, ptr, ptr, ptr, ptr, ptr, ptr, ptr, ptr, ptr, ptr, ptr, ptr, ptr, ptr, ptr, ptr, ptr, ptr, ptr, ptr, ptr, ptr, ptr, i32, i8 }

@.str.3 = private unnamed_addr constant [19 x i8] c"Invalid GPU device\00", align 1
@.str.8 = private unnamed_addr constant [103 x i8] c"generated/home/dtcxzyw/WorkSpace/Projects/compilers/llvm-opt-benchmark/bench/sdl/SDL/src/gpu/SDL_gpu.c\00", align 1
@SDL_GPUTextureSupportsFormat_REAL.sdl_assert_data = internal global { i8, [3 x i8], i32, ptr, ptr, i32, [4 x i8], ptr, ptr } { i8 0, [3 x i8] zeroinitializer, i32 0, ptr @.str.10, ptr null, i32 0, [4 x i8] zeroinitializer, ptr null, ptr null }, align 8
@__func__.SDL_GPUTextureSupportsFormat_REAL = private unnamed_addr constant [34 x i8] c"SDL_GPUTextureSupportsFormat_REAL\00", align 1
@TextureFormatIsComputeWritable = internal global <{ [52 x i8], [53 x i8] }> <{ [52 x i8] c"\00\00\01\01\01\01\01\01\01\00\00\00\00\00\00\00\00\00\00\00\00\01\01\01\01\01\01\01\01\01\01\01\01\01\01\01\01\01\01\01\01\01\01\01\01\01\01\01\01\01\01\01", [53 x i8] zeroinitializer }>, align 16

; Function Attrs: nounwind uwtable
define hidden zeroext i1 @SDL_GPUTextureSupportsFormat_REAL(ptr noundef %0, i32 noundef %1, i32 noundef %2, i32 noundef %3) #0 {
  %5 = alloca i1, align 1
  %6 = alloca ptr, align 8
  %7 = alloca i32, align 4
  %8 = alloca i32, align 4
  %9 = alloca i32, align 4
  %10 = alloca i32, align 4
  %11 = alloca i32, align 4
  store ptr %0, ptr %6, align 8
  store i32 %1, ptr %7, align 4
  store i32 %2, ptr %8, align 4
  store i32 %3, ptr %9, align 4
  %12 = load ptr, ptr %6, align 8
  %13 = icmp eq ptr %12, null
  br i1 %13, label %14, label %16

14:                                               ; preds = %4
  %15 = call zeroext i1 (ptr, ...) @SDL_SetError_REAL(ptr noundef @.str.3)
  store i1 false, ptr %5, align 1
  br label %72

16:                                               ; preds = %4
  %17 = load ptr, ptr %6, align 8
  %18 = getelementptr inbounds nuw %struct.SDL_GPUDevice, ptr %17, i32 0, i32 86
  %19 = load i8, ptr %18, align 4, !range !5, !noundef !6
  %20 = trunc i8 %19 to i1
  br i1 %20, label %21, label %45

21:                                               ; preds = %16
  %22 = load i32, ptr %7, align 4
  %23 = icmp ule i32 %22, 0
  br i1 %23, label %27, label %24

24:                                               ; preds = %21
  %25 = load i32, ptr %7, align 4
  %26 = icmp uge i32 %25, 105
  br i1 %26, label %27, label %44

27:                                               ; preds = %24, %21
  br label %28

28:                                               ; preds = %27
  br label %29

29:                                               ; preds = %28, %40
  call void @llvm.lifetime.start.p0(i64 4, ptr %10) #6
  %30 = call i32 @SDL_ReportAssertion_REAL(ptr noundef @SDL_GPUTextureSupportsFormat_REAL.sdl_assert_data, ptr noundef @__func__.SDL_GPUTextureSupportsFormat_REAL, ptr noundef @.str.8, i32 noundef 839)
  store i32 %30, ptr %10, align 4
  %31 = load i32, ptr %10, align 4
  %32 = icmp eq i32 %31, 0
  br i1 %32, label %33, label %34

33:                                               ; preds = %29
  store i32 4, ptr %11, align 4
  br label %40

34:                                               ; preds = %29
  %35 = load i32, ptr %10, align 4
  %36 = icmp eq i32 %35, 1
  br i1 %36, label %37, label %38

37:                                               ; preds = %34
  call void @llvm.debugtrap()
  br label %38

38:                                               ; preds = %37, %34
  br label %39

39:                                               ; preds = %38
  store i32 5, ptr %11, align 4
  br label %40

40:                                               ; preds = %39, %33
  call void @llvm.lifetime.end.p0(i64 4, ptr %10) #6
  %41 = load i32, ptr %11, align 4
  switch i32 %41, label %74 [
    i32 4, label %29
    i32 5, label %42
  ]

42:                                               ; preds = %40
  br label %43

43:                                               ; preds = %42
  store i1 false, ptr %5, align 1
  br label %72

44:                                               ; preds = %24
  br label %45

45:                                               ; preds = %44, %16
  %46 = load i32, ptr %9, align 4
  %47 = and i32 %46, 32
  %48 = icmp ne i32 %47, 0
  br i1 %48, label %53, label %49

49:                                               ; preds = %45
  %50 = load i32, ptr %9, align 4
  %51 = and i32 %50, 64
  %52 = icmp ne i32 %51, 0
  br i1 %52, label %53, label %61

53:                                               ; preds = %49, %45
  %54 = load i32, ptr %7, align 4
  %55 = zext i32 %54 to i64
  %56 = getelementptr inbounds nuw [105 x i8], ptr @TextureFormatIsComputeWritable, i64 0, i64 %55
  %57 = load i8, ptr %56, align 1, !range !5, !noundef !6
  %58 = trunc i8 %57 to i1
  br i1 %58, label %60, label %59

59:                                               ; preds = %53
  store i1 false, ptr %5, align 1
  br label %72

60:                                               ; preds = %53
  br label %61

61:                                               ; preds = %60, %49
  %62 = load ptr, ptr %6, align 8
  %63 = getelementptr inbounds nuw %struct.SDL_GPUDevice, ptr %62, i32 0, i32 81
  %64 = load ptr, ptr %63, align 8
  %65 = load ptr, ptr %6, align 8
  %66 = getelementptr inbounds nuw %struct.SDL_GPUDevice, ptr %65, i32 0, i32 83
  %67 = load ptr, ptr %66, align 8
  %68 = load i32, ptr %7, align 4
  %69 = load i32, ptr %8, align 4
  %70 = load i32, ptr %9, align 4
  %71 = call zeroext i1 %64(ptr noundef %67, i32 noundef %68, i32 noundef %69, i32 noundef %70)
  store i1 %71, ptr %5, align 1
  br label %72

72:                                               ; preds = %61, %59, %43, %14
  %73 = load i1, ptr %5, align 1
  ret i1 %73

74:                                               ; preds = %40
  unreachable
}