; Function Attrs: nounwind uwtable
define hidden zeroext i1 @SDL_GPUTextureSupportsFormat_REAL(ptr noundef readonly captures(address_is_null) %0, i32 noundef %1, i32 noundef %2, i32 noundef %3) local_unnamed_addr #0 {
  %5 = icmp eq ptr %0, null
  br i1 %5, label %6, label %8

6:                                                ; preds = %4
  %7 = tail call zeroext i1 (ptr, ...) @SDL_SetError_REAL(ptr noundef nonnull @.str.3) #7
  br label %.thread

8:                                                ; preds = %4
  %9 = getelementptr inbounds nuw i8, ptr %0, i64 684
  %10 = load i8, ptr %9, align 4, !range !5, !noundef !6
  %11 = trunc nuw i8 %10 to i1
  %12 = add i32 %1, -105
  %or.cond = icmp ult i32 %12, -104
  %or.cond20 = and i1 %or.cond, %11
  br i1 %or.cond20, label %.preheader, label %15

.preheader:                                       ; preds = %8, %.preheader
  %13 = tail call i32 @SDL_ReportAssertion_REAL(ptr noundef nonnull @SDL_GPUTextureSupportsFormat_REAL.sdl_assert_data, ptr noundef nonnull @__func__.SDL_GPUTextureSupportsFormat_REAL, ptr noundef nonnull @.str.8, i32 noundef 839) #7
  switch i32 %13, label %.thread [
    i32 0, label %.preheader
    i32 1, label %14
  ]

14:                                               ; preds = %.preheader
  tail call void @llvm.debugtrap()
  br label %.thread

15:                                               ; preds = %8
  %16 = and i32 %3, 96
  %or.cond21 = icmp eq i32 %16, 0
  br i1 %or.cond21, label %22, label %17

17:                                               ; preds = %15
  %18 = zext i32 %1 to i64
  %19 = getelementptr inbounds nuw [105 x i8], ptr @TextureFormatIsComputeWritable, i64 0, i64 %18
  %20 = load i8, ptr %19, align 1, !range !5, !noundef !6
  %21 = trunc nuw i8 %20 to i1
  br i1 %21, label %22, label %.thread

22:                                               ; preds = %15, %17
  %23 = getelementptr inbounds nuw i8, ptr %0, i64 648
  %24 = load ptr, ptr %23, align 8
  %25 = getelementptr inbounds nuw i8, ptr %0, i64 664
  %26 = load ptr, ptr %25, align 8
  %27 = tail call zeroext i1 %24(ptr noundef %26, i32 noundef %1, i32 noundef %2, i32 noundef %3) #7
  br label %.thread

.thread:                                          ; preds = %.preheader, %14, %17, %22, %6
  %.016 = phi i1 [ false, %6 ], [ %27, %22 ], [ false, %17 ], [ false, %14 ], [ false, %.preheader ]
  ret i1 %.016
}